	.file	"onefile.cpp"
	.text
	.section	.rodata.str1.1,"aMS",@progbits,1
.LC0:
	.string	"Volatility: "
.LC1:
	.string	"Time span in years: "
.LC2:
	.string	"Total variance is "
	.section	.text.startup,"ax",@progbits
	.p2align 4
	.globl	main
	.type	main, @function
main:
.LFB1816:
	.cfi_startproc
	endbr64
	pushq	%r12
	.cfi_def_cfa_offset 16
	.cfi_offset 12, -16
	movl	$12, %edx
	leaq	.LC0(%rip), %rsi
	leaq	_ZSt3cin(%rip), %r12
	pushq	%rbp
	.cfi_def_cfa_offset 24
	.cfi_offset 6, -24
	leaq	_ZSt4cout(%rip), %rbp
	movq	%rbp, %rdi
	subq	$40, %rsp
	.cfi_def_cfa_offset 64
	movq	%fs:40, %rax
	movq	%rax, 24(%rsp)
	xorl	%eax, %eax
	call	_ZSt16__ostream_insertIcSt11char_traitsIcEERSt13basic_ostreamIT_T0_ES6_PKS3_l@PLT
	leaq	8(%rsp), %rsi
	movq	%r12, %rdi
	call	_ZNSi10_M_extractIdEERSiRT_@PLT
	movl	$20, %edx
	leaq	.LC1(%rip), %rsi
	movq	%rbp, %rdi
	call	_ZSt16__ostream_insertIcSt11char_traitsIcEERSt13basic_ostreamIT_T0_ES6_PKS3_l@PLT
	leaq	16(%rsp), %rsi
	movq	%r12, %rdi
	call	_ZNSi10_M_extractIdEERSiRT_@PLT
	movl	$18, %edx
	leaq	.LC2(%rip), %rsi
	movq	%rbp, %rdi
	call	_ZSt16__ostream_insertIcSt11char_traitsIcEERSt13basic_ostreamIT_T0_ES6_PKS3_l@PLT
	movsd	8(%rsp), %xmm0
	movq	%rbp, %rdi
	mulsd	%xmm0, %xmm0
	mulsd	16(%rsp), %xmm0
	call	_ZNSo9_M_insertIdEERSoT_@PLT
	leaq	7(%rsp), %rsi
	movl	$1, %edx
	movb	$10, 7(%rsp)
	movq	%rax, %rdi
	call	_ZSt16__ostream_insertIcSt11char_traitsIcEERSt13basic_ostreamIT_T0_ES6_PKS3_l@PLT
	movq	24(%rsp), %rax
	subq	%fs:40, %rax
	jne	.L5
	addq	$40, %rsp
	.cfi_remember_state
	.cfi_def_cfa_offset 24
	xorl	%eax, %eax
	popq	%rbp
	.cfi_def_cfa_offset 16
	popq	%r12
	.cfi_def_cfa_offset 8
	ret
.L5:
	.cfi_restore_state
	call	__stack_chk_fail@PLT
	.cfi_endproc
.LFE1816:
	.size	main, .-main
	.p2align 4
	.type	_GLOBAL__sub_I_main, @function
_GLOBAL__sub_I_main:
.LFB2304:
	.cfi_startproc
	endbr64
	pushq	%rbp
	.cfi_def_cfa_offset 16
	.cfi_offset 6, -16
	leaq	_ZStL8__ioinit(%rip), %rbp
	movq	%rbp, %rdi
	call	_ZNSt8ios_base4InitC1Ev@PLT
	movq	_ZNSt8ios_base4InitD1Ev@GOTPCREL(%rip), %rdi
	movq	%rbp, %rsi
	popq	%rbp
	.cfi_def_cfa_offset 8
	leaq	__dso_handle(%rip), %rdx
	jmp	__cxa_atexit@PLT
	.cfi_endproc
.LFE2304:
	.size	_GLOBAL__sub_I_main, .-_GLOBAL__sub_I_main
	.section	.init_array,"aw"
	.align 8
	.quad	_GLOBAL__sub_I_main
	.local	_ZStL8__ioinit
	.comm	_ZStL8__ioinit,1,1
	.hidden	__dso_handle
	.ident	"GCC: (Ubuntu 11.4.0-1ubuntu1~22.04) 11.4.0"
	.section	.note.GNU-stack,"",@progbits
	.section	.note.gnu.property,"a"
	.align 8
	.long	1f - 0f
	.long	4f - 1f
	.long	5
0:
	.string	"GNU"
1:
	.align 8
	.long	0xc0000002
	.long	3f - 2f
2:
	.long	0x3
3:
	.align 8
4:
