	.file	"onefile.cpp"
	.text
	.local	_ZStL8__ioinit
	.comm	_ZStL8__ioinit,1,1
	.section	.text._ZN13BSModelParamsC2Ed,"axG",@progbits,_ZN13BSModelParamsC5Ed,comdat
	.align 2
	.weak	_ZN13BSModelParamsC2Ed
	.type	_ZN13BSModelParamsC2Ed, @function
_ZN13BSModelParamsC2Ed:
.LFB1732:
	.cfi_startproc
	endbr64
	pushq	%rbp
	.cfi_def_cfa_offset 16
	.cfi_offset 6, -16
	movq	%rsp, %rbp
	.cfi_def_cfa_register 6
	movq	%rdi, -8(%rbp)
	movsd	%xmm0, -16(%rbp)
	movq	-8(%rbp), %rax
	movsd	-16(%rbp), %xmm0
	movsd	%xmm0, (%rax)
	nop
	popq	%rbp
	.cfi_def_cfa 7, 8
	ret
	.cfi_endproc
.LFE1732:
	.size	_ZN13BSModelParamsC2Ed, .-_ZN13BSModelParamsC2Ed
	.weak	_ZN13BSModelParamsC1Ed
	.set	_ZN13BSModelParamsC1Ed,_ZN13BSModelParamsC2Ed
	.section	.text._ZNK13BSModelParams14total_varianceEd,"axG",@progbits,_ZNK13BSModelParams14total_varianceEd,comdat
	.align 2
	.weak	_ZNK13BSModelParams14total_varianceEd
	.type	_ZNK13BSModelParams14total_varianceEd, @function
_ZNK13BSModelParams14total_varianceEd:
.LFB1734:
	.cfi_startproc
	endbr64
	pushq	%rbp
	.cfi_def_cfa_offset 16
	.cfi_offset 6, -16
	movq	%rsp, %rbp
	.cfi_def_cfa_register 6
	movq	%rdi, -8(%rbp)
	movsd	%xmm0, -16(%rbp)
	movq	-8(%rbp), %rax
	movsd	(%rax), %xmm1
	movq	-8(%rbp), %rax
	movsd	(%rax), %xmm0
	mulsd	%xmm1, %xmm0
	mulsd	-16(%rbp), %xmm0
	movq	%xmm0, %rax
	movq	%rax, %xmm0
	popq	%rbp
	.cfi_def_cfa 7, 8
	ret
	.cfi_endproc
.LFE1734:
	.size	_ZNK13BSModelParams14total_varianceEd, .-_ZNK13BSModelParams14total_varianceEd
	.section	.rodata
.LC0:
	.string	"Volatility: "
.LC1:
	.string	"Time span in years: "
.LC2:
	.string	"Total variance is "
	.text
	.globl	main
	.type	main, @function
main:
.LFB1735:
	.cfi_startproc
	endbr64
	pushq	%rbp
	.cfi_def_cfa_offset 16
	.cfi_offset 6, -16
	movq	%rsp, %rbp
	.cfi_def_cfa_register 6
	pushq	%rbx
	subq	$40, %rsp
	.cfi_offset 3, -24
	movq	%fs:40, %rax
	movq	%rax, -24(%rbp)
	xorl	%eax, %eax
	leaq	.LC0(%rip), %rax
	movq	%rax, %rsi
	leaq	_ZSt4cout(%rip), %rax
	movq	%rax, %rdi
	call	_ZStlsISt11char_traitsIcEERSt13basic_ostreamIcT_ES5_PKc@PLT
	leaq	-48(%rbp), %rax
	movq	%rax, %rsi
	leaq	_ZSt3cin(%rip), %rax
	movq	%rax, %rdi
	call	_ZNSirsERd@PLT
	leaq	.LC1(%rip), %rax
	movq	%rax, %rsi
	leaq	_ZSt4cout(%rip), %rax
	movq	%rax, %rdi
	call	_ZStlsISt11char_traitsIcEERSt13basic_ostreamIcT_ES5_PKc@PLT
	leaq	-40(%rbp), %rax
	movq	%rax, %rsi
	leaq	_ZSt3cin(%rip), %rax
	movq	%rax, %rdi
	call	_ZNSirsERd@PLT
	leaq	.LC2(%rip), %rax
	movq	%rax, %rsi
	leaq	_ZSt4cout(%rip), %rax
	movq	%rax, %rdi
	call	_ZStlsISt11char_traitsIcEERSt13basic_ostreamIcT_ES5_PKc@PLT
	movq	%rax, %rbx
	movq	-48(%rbp), %rdx
	leaq	-32(%rbp), %rax
	movq	%rdx, %xmm0
	movq	%rax, %rdi
	call	_ZN13BSModelParamsC1Ed
	movq	-40(%rbp), %rdx
	leaq	-32(%rbp), %rax
	movq	%rdx, %xmm0
	movq	%rax, %rdi
	call	_ZNK13BSModelParams14total_varianceEd
	movq	%xmm0, %rax
	movq	%rax, %xmm0
	movq	%rbx, %rdi
	call	_ZNSolsEd@PLT
	movl	$10, %esi
	movq	%rax, %rdi
	call	_ZStlsISt11char_traitsIcEERSt13basic_ostreamIcT_ES5_c@PLT
	movl	$0, %eax
	movq	-24(%rbp), %rdx
	subq	%fs:40, %rdx
	je	.L6
	call	__stack_chk_fail@PLT
.L6:
	movq	-8(%rbp), %rbx
	leave
	.cfi_def_cfa 7, 8
	ret
	.cfi_endproc
.LFE1735:
	.size	main, .-main
	.type	_Z41__static_initialization_and_destruction_0ii, @function
_Z41__static_initialization_and_destruction_0ii:
.LFB2236:
	.cfi_startproc
	endbr64
	pushq	%rbp
	.cfi_def_cfa_offset 16
	.cfi_offset 6, -16
	movq	%rsp, %rbp
	.cfi_def_cfa_register 6
	subq	$16, %rsp
	movl	%edi, -4(%rbp)
	movl	%esi, -8(%rbp)
	cmpl	$1, -4(%rbp)
	jne	.L9
	cmpl	$65535, -8(%rbp)
	jne	.L9
	leaq	_ZStL8__ioinit(%rip), %rax
	movq	%rax, %rdi
	call	_ZNSt8ios_base4InitC1Ev@PLT
	leaq	__dso_handle(%rip), %rax
	movq	%rax, %rdx
	leaq	_ZStL8__ioinit(%rip), %rax
	movq	%rax, %rsi
	movq	_ZNSt8ios_base4InitD1Ev@GOTPCREL(%rip), %rax
	movq	%rax, %rdi
	call	__cxa_atexit@PLT
.L9:
	nop
	leave
	.cfi_def_cfa 7, 8
	ret
	.cfi_endproc
.LFE2236:
	.size	_Z41__static_initialization_and_destruction_0ii, .-_Z41__static_initialization_and_destruction_0ii
	.type	_GLOBAL__sub_I_main, @function
_GLOBAL__sub_I_main:
.LFB2237:
	.cfi_startproc
	endbr64
	pushq	%rbp
	.cfi_def_cfa_offset 16
	.cfi_offset 6, -16
	movq	%rsp, %rbp
	.cfi_def_cfa_register 6
	movl	$65535, %esi
	movl	$1, %edi
	call	_Z41__static_initialization_and_destruction_0ii
	popq	%rbp
	.cfi_def_cfa 7, 8
	ret
	.cfi_endproc
.LFE2237:
	.size	_GLOBAL__sub_I_main, .-_GLOBAL__sub_I_main
	.section	.init_array,"aw"
	.align 8
	.quad	_GLOBAL__sub_I_main
	.hidden	__dso_handle
	.ident	"GCC: (Ubuntu 11.4.0-1ubuntu1~22.04) 11.4.0"
	.section	.note.GNU-stack,"",@progbits
	.section	.note.gnu.property,"a"
	.align 8
	.long	1f - 0f
	.long	4f - 1f
	.long	5
0:
	.string	"GNU"
1:
	.align 8
	.long	0xc0000002
	.long	3f - 2f
2:
	.long	0x3
3:
	.align 8
4:
